target datalayout = "e-m:e-p270:32:32-p271:32:32-p272:64:64-i64:64-i128:128-f80:128-n8:16:32:64-S128"
target triple = "x86_64-pc-linux-gnu"

%struct.VP8LBackwardRefs = type { i32, i32, ptr, ptr, ptr, ptr }

; Function Attrs: nounwind uwtable
define hidden void @VP8LClearBackwardRefs(ptr noundef %0) #0 {
  %2 = alloca ptr, align 8
  store ptr %0, ptr %2, align 8, !tbaa !8
  %3 = load ptr, ptr %2, align 8, !tbaa !8
  %4 = getelementptr inbounds nuw %struct.VP8LBackwardRefs, ptr %3, i32 0, i32 3
  %5 = load ptr, ptr %4, align 8, !tbaa !11
  %6 = icmp ne ptr %5, null
  br i1 %6, label %7, label %14

7:                                                ; preds = %1
  %8 = load ptr, ptr %2, align 8, !tbaa !8
  %9 = getelementptr inbounds nuw %struct.VP8LBackwardRefs, ptr %8, i32 0, i32 4
  %10 = load ptr, ptr %9, align 8, !tbaa !15
  %11 = load ptr, ptr %2, align 8, !tbaa !8
  %12 = getelementptr inbounds nuw %struct.VP8LBackwardRefs, ptr %11, i32 0, i32 3
  %13 = load ptr, ptr %12, align 8, !tbaa !11
  store ptr %10, ptr %13, align 8, !tbaa !16
  br label %14

14:                                               ; preds = %7, %1
  %15 = load ptr, ptr %2, align 8, !tbaa !8
  %16 = getelementptr inbounds nuw %struct.VP8LBackwardRefs, ptr %15, i32 0, i32 2
  %17 = load ptr, ptr %16, align 8, !tbaa !17
  %18 = load ptr, ptr %2, align 8, !tbaa !8
  %19 = getelementptr inbounds nuw %struct.VP8LBackwardRefs, ptr %18, i32 0, i32 4
  store ptr %17, ptr %19, align 8, !tbaa !15
  %20 = load ptr, ptr %2, align 8, !tbaa !8
  %21 = getelementptr inbounds nuw %struct.VP8LBackwardRefs, ptr %20, i32 0, i32 2
  %22 = load ptr, ptr %2, align 8, !tbaa !8
  %23 = getelementptr inbounds nuw %struct.VP8LBackwardRefs, ptr %22, i32 0, i32 3
  store ptr %21, ptr %23, align 8, !tbaa !11
  %24 = load ptr, ptr %2, align 8, !tbaa !8
  %25 = getelementptr inbounds nuw %struct.VP8LBackwardRefs, ptr %24, i32 0, i32 5
  store ptr null, ptr %25, align 8, !tbaa !18
  %26 = load ptr, ptr %2, align 8, !tbaa !8
  %27 = getelementptr inbounds nuw %struct.VP8LBackwardRefs, ptr %26, i32 0, i32 2
  store ptr null, ptr %27, align 8, !tbaa !17
  ret void
}